target datalayout = "e-m:e-p270:32:32-p271:32:32-p272:64:64-i64:64-i128:128-f80:128-n8:16:32:64-S128"
target triple = "x86_64-pc-linux-gnu"

%struct.mi_page_s = type { i8, i8, i16, i16, %union.mi_page_flags_s, i8, ptr, ptr, i16, i8, i8, i64, ptr, i64, i64, ptr, ptr }
%union.mi_page_flags_s = type { i8 }
%struct.mi_segment_s = type { %struct.mi_memid_s, i8, i8, i64, ptr, ptr, ptr, i8, i8, i64, i64, i64, i64, i64, i64, ptr, ptr, i64, i64, i32, [1 x %struct.mi_page_s] }
%struct.mi_memid_s = type { %union.anon, i8, i8, i8, i32 }
%union.anon = type { %struct.mi_memid_os_info }
%struct.mi_memid_os_info = type { ptr, i64 }

; Function Attrs: nounwind uwtable
define internal i64 @mi_segment_raw_page_size(ptr noundef %0) #0 {
  %2 = alloca ptr, align 8
  store ptr %0, ptr %2, align 8, !tbaa !3
  %3 = load ptr, ptr %2, align 8, !tbaa !3
  %4 = getelementptr inbounds nuw %struct.mi_segment_s, ptr %3, i32 0, i32 19
  %5 = load i32, ptr %4, align 8, !tbaa !44
  %6 = icmp eq i32 %5, 3
  br i1 %6, label %7, label %11

7:                                                ; preds = %1
  %8 = load ptr, ptr %2, align 8, !tbaa !3
  %9 = getelementptr inbounds nuw %struct.mi_segment_s, ptr %8, i32 0, i32 3
  %10 = load i64, ptr %9, align 8, !tbaa !57
  br label %16

11:                                               ; preds = %1
  %12 = load ptr, ptr %2, align 8, !tbaa !3
  %13 = getelementptr inbounds nuw %struct.mi_segment_s, ptr %12, i32 0, i32 18
  %14 = load i64, ptr %13, align 8, !tbaa !94
  %15 = shl i64 1, %14
  br label %16

16:                                               ; preds = %11, %7
  %17 = phi i64 [ %10, %7 ], [ %15, %11 ]
  ret i64 %17
}

; Function Attrs: inlinehint nounwind uwtable
define internal i64 @mi_page_block_size(ptr noundef %0) #2 {
  %2 = alloca ptr, align 8
  store ptr %0, ptr %2, align 8, !tbaa !8
  %3 = load ptr, ptr %2, align 8, !tbaa !8
  %4 = getelementptr inbounds nuw %struct.mi_page_s, ptr %3, i32 0, i32 11
  %5 = load i64, ptr %4, align 8, !tbaa !26
  ret i64 %5
}

; Function Attrs: nounwind uwtable
define internal ptr @mi_segment_raw_page_start(ptr noundef %0, ptr noundef %1, ptr noundef %2) #0 {
  %4 = alloca ptr, align 8
  %5 = alloca ptr, align 8
  %6 = alloca ptr, align 8
  %7 = alloca i64, align 8
  %8 = alloca ptr, align 8
  store ptr %0, ptr %4, align 8, !tbaa !3
  store ptr %1, ptr %5, align 8, !tbaa !8
  store ptr %2, ptr %6, align 8, !tbaa !10
  call void @llvm.lifetime.start.p0(i64 8, ptr %7) #7
  %9 = load ptr, ptr %4, align 8, !tbaa !3
  %10 = call i64 @mi_segment_raw_page_size(ptr noundef %9) #8
  store i64 %10, ptr %7, align 8, !tbaa !14
  call void @llvm.lifetime.start.p0(i64 8, ptr %8) #7
  %11 = load ptr, ptr %4, align 8, !tbaa !3
  %12 = load ptr, ptr %5, align 8, !tbaa !8
  %13 = getelementptr inbounds nuw %struct.mi_page_s, ptr %12, i32 0, i32 0
  %14 = load i8, ptr %13, align 8, !tbaa !16
  %15 = zext i8 %14 to i64
  %16 = load i64, ptr %7, align 8, !tbaa !14
  %17 = mul i64 %15, %16
  %18 = getelementptr inbounds nuw i8, ptr %11, i64 %17
  store ptr %18, ptr %8, align 8, !tbaa !12
  %19 = load ptr, ptr %5, align 8, !tbaa !8
  %20 = getelementptr inbounds nuw %struct.mi_page_s, ptr %19, i32 0, i32 0
  %21 = load i8, ptr %20, align 8, !tbaa !16
  %22 = zext i8 %21 to i32
  %23 = icmp eq i32 %22, 0
  br i1 %23, label %24, label %35

24:                                               ; preds = %3
  %25 = load ptr, ptr %4, align 8, !tbaa !3
  %26 = getelementptr inbounds nuw %struct.mi_segment_s, ptr %25, i32 0, i32 13
  %27 = load i64, ptr %26, align 8, !tbaa !20
  %28 = load ptr, ptr %8, align 8, !tbaa !12
  %29 = getelementptr inbounds nuw i8, ptr %28, i64 %27
  store ptr %29, ptr %8, align 8, !tbaa !12
  %30 = load ptr, ptr %4, align 8, !tbaa !3
  %31 = getelementptr inbounds nuw %struct.mi_segment_s, ptr %30, i32 0, i32 13
  %32 = load i64, ptr %31, align 8, !tbaa !20
  %33 = load i64, ptr %7, align 8, !tbaa !14
  %34 = sub i64 %33, %32
  store i64 %34, ptr %7, align 8, !tbaa !14
  br label %35

35:                                               ; preds = %24, %3
  %36 = load ptr, ptr %6, align 8, !tbaa !10
  %37 = icmp ne ptr %36, null
  br i1 %37, label %38, label %41

38:                                               ; preds = %35
  %39 = load i64, ptr %7, align 8, !tbaa !14
  %40 = load ptr, ptr %6, align 8, !tbaa !10
  store i64 %39, ptr %40, align 8, !tbaa !14
  br label %41

41:                                               ; preds = %38, %35
  %42 = load ptr, ptr %8, align 8, !tbaa !12
  call void @llvm.lifetime.end.p0(i64 8, ptr %8) #7
  call void @llvm.lifetime.end.p0(i64 8, ptr %7) #7
  ret ptr %42
}

; Function Attrs: nounwind uwtable
define hidden ptr @_mi_segment_page_start(ptr noundef %0, ptr noundef %1, ptr noundef %2) #0 {
  %4 = alloca ptr, align 8
  %5 = alloca ptr, align 8
  %6 = alloca ptr, align 8
  %7 = alloca i64, align 8
  %8 = alloca ptr, align 8
  %9 = alloca i64, align 8
  %10 = alloca i64, align 8
  store ptr %0, ptr %4, align 8, !tbaa !3
  store ptr %1, ptr %5, align 8, !tbaa !8
  store ptr %2, ptr %6, align 8, !tbaa !10
  call void @llvm.lifetime.start.p0(i64 8, ptr %7) #7
  call void @llvm.lifetime.start.p0(i64 8, ptr %8) #7
  %11 = load ptr, ptr %4, align 8, !tbaa !3
  %12 = load ptr, ptr %5, align 8, !tbaa !8
  %13 = call ptr @mi_segment_raw_page_start(ptr noundef %11, ptr noundef %12, ptr noundef %7) #8
  store ptr %13, ptr %8, align 8, !tbaa !12
  call void @llvm.lifetime.start.p0(i64 8, ptr %9) #7
  %14 = load ptr, ptr %5, align 8, !tbaa !8
  %15 = call i64 @mi_page_block_size(ptr noundef %14) #8
  store i64 %15, ptr %9, align 8, !tbaa !14
  %16 = load i64, ptr %9, align 8, !tbaa !14
  %17 = icmp ugt i64 %16, 0
  br i1 %17, label %18, label %45

18:                                               ; preds = %3
  %19 = load i64, ptr %9, align 8, !tbaa !14
  %20 = icmp ule i64 %19, 65536
  br i1 %20, label %21, label %45

21:                                               ; preds = %18
  call void @llvm.lifetime.start.p0(i64 8, ptr %10) #7
  %22 = load i64, ptr %9, align 8, !tbaa !14
  %23 = load ptr, ptr %8, align 8, !tbaa !12
  %24 = ptrtoint ptr %23 to i64
  %25 = load i64, ptr %9, align 8, !tbaa !14
  %26 = urem i64 %24, %25
  %27 = sub i64 %22, %26
  store i64 %27, ptr %10, align 8, !tbaa !14
  %28 = load i64, ptr %10, align 8, !tbaa !14
  %29 = load i64, ptr %9, align 8, !tbaa !14
  %30 = icmp ult i64 %28, %29
  br i1 %30, label %31, label %44

31:                                               ; preds = %21
  %32 = load i64, ptr %7, align 8, !tbaa !14
  %33 = load i64, ptr %9, align 8, !tbaa !14
  %34 = load i64, ptr %10, align 8, !tbaa !14
  %35 = add i64 %33, %34
  %36 = icmp uge i64 %32, %35
  br i1 %36, label %37, label %44

37:                                               ; preds = %31
  %38 = load i64, ptr %10, align 8, !tbaa !14
  %39 = load ptr, ptr %8, align 8, !tbaa !12
  %40 = getelementptr inbounds nuw i8, ptr %39, i64 %38
  store ptr %40, ptr %8, align 8, !tbaa !12
  %41 = load i64, ptr %10, align 8, !tbaa !14
  %42 = load i64, ptr %7, align 8, !tbaa !14
  %43 = sub i64 %42, %41
  store i64 %43, ptr %7, align 8, !tbaa !14
  br label %44

44:                                               ; preds = %37, %31, %21
  call void @llvm.lifetime.end.p0(i64 8, ptr %10) #7
  br label %45

45:                                               ; preds = %44, %18, %3
  %46 = load ptr, ptr %6, align 8, !tbaa !10
  %47 = icmp ne ptr %46, null
  br i1 %47, label %48, label %51

48:                                               ; preds = %45
  %49 = load i64, ptr %7, align 8, !tbaa !14
  %50 = load ptr, ptr %6, align 8, !tbaa !10
  store i64 %49, ptr %50, align 8, !tbaa !14
  br label %51

51:                                               ; preds = %48, %45
  %52 = load ptr, ptr %8, align 8, !tbaa !12
  call void @llvm.lifetime.end.p0(i64 8, ptr %9) #7
  call void @llvm.lifetime.end.p0(i64 8, ptr %8) #7
  call void @llvm.lifetime.end.p0(i64 8, ptr %7) #7
  ret ptr %52
}