; Function Attrs: mustprogress nofree norecurse nosync nounwind willreturn memory(argmem: readwrite) uwtable
define hidden ptr @_mi_segment_page_start(ptr noundef %0, ptr noundef readonly captures(none) %1, ptr noundef writeonly captures(address_is_null) %2) local_unnamed_addr #0 {
  %4 = getelementptr inbounds nuw i8, ptr %0, i64 152
  %5 = load i32, ptr %4, align 8, !tbaa !3
  %6 = icmp eq i32 %5, 3
  br i1 %6, label %7, label %10

7:                                                ; preds = %3
  %8 = getelementptr inbounds nuw i8, ptr %0, i64 32
  %9 = load i64, ptr %8, align 8, !tbaa !14
  br label %mi_segment_raw_page_size.exit.i

10:                                               ; preds = %3
  %11 = getelementptr inbounds nuw i8, ptr %0, i64 144
  %12 = load i64, ptr %11, align 8, !tbaa !15
  %13 = shl nuw i64 1, %12
  br label %mi_segment_raw_page_size.exit.i

mi_segment_raw_page_size.exit.i:                  ; preds = %10, %7
  %14 = phi i64 [ %9, %7 ], [ %13, %10 ]
  %15 = load i8, ptr %1, align 8, !tbaa !16
  %16 = zext i8 %15 to i64
  %17 = mul i64 %14, %16
  %18 = getelementptr inbounds nuw i8, ptr %0, i64 %17
  %19 = icmp eq i8 %15, 0
  br i1 %19, label %20, label %mi_segment_raw_page_start.exit

20:                                               ; preds = %mi_segment_raw_page_size.exit.i
  %21 = getelementptr inbounds nuw i8, ptr %0, i64 104
  %22 = load i64, ptr %21, align 8, !tbaa !22
  %23 = getelementptr inbounds nuw i8, ptr %18, i64 %22
  %24 = sub i64 %14, %22
  br label %mi_segment_raw_page_start.exit

mi_segment_raw_page_start.exit:                   ; preds = %mi_segment_raw_page_size.exit.i, %20
  %.012.i = phi i64 [ %24, %20 ], [ %14, %mi_segment_raw_page_size.exit.i ]
  %.0.i = phi ptr [ %23, %20 ], [ %18, %mi_segment_raw_page_size.exit.i ]
  %25 = getelementptr i8, ptr %1, i64 32
  %.val = load i64, ptr %25, align 8, !tbaa !23
  %26 = add i64 %.val, -1
  %or.cond = icmp ult i64 %26, 65536
  br i1 %or.cond, label %27, label %36

27:                                               ; preds = %mi_segment_raw_page_start.exit
  %28 = ptrtoint ptr %.0.i to i64
  %29 = urem i64 %28, %.val
  %30 = sub nsw i64 %.val, %29
  %31 = icmp uge i64 %30, %.val
  %32 = add nuw nsw i64 %30, %.val
  %.not = icmp ult i64 %.012.i, %32
  %or.cond25 = select i1 %31, i1 true, i1 %.not
  br i1 %or.cond25, label %36, label %33

33:                                               ; preds = %27
  %34 = getelementptr inbounds nuw i8, ptr %.0.i, i64 %30
  %35 = sub nuw i64 %.012.i, %30
  br label %36

36:                                               ; preds = %27, %33, %mi_segment_raw_page_start.exit
  %.024 = phi i64 [ %35, %33 ], [ %.012.i, %27 ], [ %.012.i, %mi_segment_raw_page_start.exit ]
  %.0 = phi ptr [ %34, %33 ], [ %.0.i, %27 ], [ %.0.i, %mi_segment_raw_page_start.exit ]
  %.not22 = icmp eq ptr %2, null
  br i1 %.not22, label %38, label %37

37:                                               ; preds = %36
  store i64 %.024, ptr %2, align 8, !tbaa !24
  br label %38

38:                                               ; preds = %37, %36
  ret ptr %.0
}